; Function Attrs: null_pointer_is_valid sspstrong uwtable
define hidden ptr @xmpp_steal_element_by_names(ptr noundef readonly captures(none) %0, ptr noundef readonly captures(none) %1, i32 noundef %2) local_unnamed_addr #0 {
  %4 = icmp sgt i32 %2, 0
  br i1 %4, label %.lr.ph, label %xmpp_steal_element_by_name.exit._crit_edge

.lr.ph:                                           ; preds = %3
  %5 = getelementptr inbounds nuw i8, ptr %0, i64 32
  %wide.trip.count = zext nneg i32 %2 to i64
  br label %6

6:                                                ; preds = %.lr.ph, %xmpp_steal_element_by_name.exit.thread
  %indvars.iv = phi i64 [ 0, %.lr.ph ], [ %indvars.iv.next, %xmpp_steal_element_by_name.exit.thread ]
  %7 = getelementptr ptr, ptr %1, i64 %indvars.iv
  %8 = load ptr, ptr %7, align 8
  %9 = tail call ptr @wmem_packet_scope()
  %10 = tail call noalias dereferenceable_or_null(64) ptr @wmem_alloc(ptr noundef %9, i64 noundef 64) #10
  %11 = tail call ptr @wmem_packet_scope()
  %12 = tail call noalias ptr @wmem_strdup(ptr noundef %11, ptr noundef %8)
  store ptr %12, ptr %10, align 8
  %13 = load ptr, ptr %5, align 8
  %14 = tail call ptr @g_list_find_custom(ptr noundef %13, ptr noundef %10, ptr noundef nonnull @xmpp_element_t_cmp)
  %.not.i = icmp eq ptr %14, null
  br i1 %.not.i, label %xmpp_steal_element_by_name.exit.thread, label %xmpp_steal_element_by_name.exit

xmpp_steal_element_by_name.exit:                  ; preds = %6
  %15 = load ptr, ptr %14, align 8
  %16 = getelementptr inbounds nuw i8, ptr %15, i64 56
  store i8 1, ptr %16, align 8
  %.not = icmp eq ptr %15, null
  br i1 %.not, label %xmpp_steal_element_by_name.exit.thread, label %xmpp_steal_element_by_name.exit._crit_edge

xmpp_steal_element_by_name.exit.thread:           ; preds = %6, %xmpp_steal_element_by_name.exit
  %indvars.iv.next = add nuw nsw i64 %indvars.iv, 1
  %exitcond.not = icmp eq i64 %indvars.iv.next, %wide.trip.count
  br i1 %exitcond.not, label %xmpp_steal_element_by_name.exit._crit_edge, label %6, !llvm.loop !12

xmpp_steal_element_by_name.exit._crit_edge:       ; preds = %xmpp_steal_element_by_name.exit.thread, %xmpp_steal_element_by_name.exit, %3
  %.1 = phi ptr [ null, %3 ], [ %15, %xmpp_steal_element_by_name.exit ], [ null, %xmpp_steal_element_by_name.exit.thread ]
  ret ptr %.1
}